ccopy_reg
_reconstructor
p0
(cgoogle.oauth2.credentials
Credentials
p1
c__builtin__
object
p2
Ntp3
Rp4
(dp5
S'_token_uri'
p6
Vhttps://oauth2.googleapis.com/token
p7
sS'_scopes'
p8
(lp9
S'https://www.googleapis.com/auth/spreadsheets'
p10
asS'_id_token'
p11
NsS'token'
p12
Vya29.ImG5BzLM2UeP4Fb8R2zRWZnDOmm1jKAYgZmjgTRWpf7RZQhxehUTgAWTqrYo2p4TpFsM3t63golo69QDmFeCUmfzG15wVnl-v0pmsz-XrgbR7s7u7jumoGFADzU7N05Za3KU
p13
sS'_refresh_token'
p14
V1/VNiNKhH-6YQf75ecPqJsNIhAlI6_6dMX81XWoCwcLxQ
p15
sS'_client_secret'
p16
Vp8JqognxUVn-LIu2XucoimPu
p17
sS'_client_id'
p18
V783341049091-q5t3davdeh3ookqr4odo0kic3m4i55l4.apps.googleusercontent.com
p19
sS'expiry'
p20
cdatetime
datetime
p21
(S'\x07\xe4\x01\n\x10#\x10\x08$\xe5'
p22
tp23
Rp24
sb.